target datalayout = "e-m:e-p270:32:32-p271:32:32-p272:64:64-i64:64-i128:128-f80:128-n8:16:32:64-S128"
target triple = "x86_64-pc-linux-gnu"

%struct.Wlc_Ntk_t_ = type { ptr, ptr, %struct.Vec_Int_t_, %struct.Vec_Int_t_, %struct.Vec_Int_t_, %struct.Vec_Int_t_, %struct.Vec_Int_t_, %struct.Vec_Int_t_, ptr, ptr, ptr, [60 x i32], [60 x i32], i32, i32, i32, i32, i32, ptr, i32, i32, ptr, ptr, ptr, ptr, ptr, %struct.Vec_Int_t_, %struct.Vec_Int_t_, i32, %struct.Vec_Int_t_, %struct.Vec_Int_t_, %struct.Vec_Int_t_, %struct.Vec_Int_t_, %struct.Vec_Int_t_, %struct.Vec_Int_t_ }
%struct.Vec_Int_t_ = type { i32, i32, ptr }
%struct.Wlc_Obj_t_ = type { i16, i32, i32, i32, %union.anon }
%union.anon = type { [1 x ptr] }

@.str.41 = private unnamed_addr constant [14 x i8] c"Operation %s\0A\00", align 1
@.str.42 = private unnamed_addr constant [7 x i8] c"%8d  :\00", align 1

; Function Attrs: nounwind uwtable
define internal ptr @Wlc_NtkObj(ptr noundef %0, i32 noundef %1) #0 {
  %3 = alloca ptr, align 8
  %4 = alloca i32, align 4
  store ptr %0, ptr %3, align 8
  store i32 %1, ptr %4, align 4
  %5 = load ptr, ptr %3, align 8
  %6 = getelementptr inbounds %struct.Wlc_Ntk_t_, ptr %5, i32 0, i32 18
  %7 = load ptr, ptr %6, align 8
  %8 = load i32, ptr %4, align 4
  %9 = sext i32 %8 to i64
  %10 = getelementptr inbounds %struct.Wlc_Obj_t_, ptr %7, i64 %9
  ret ptr %10
}

; Function Attrs: nounwind uwtable
define internal i32 @Wlc_NtkObjNumMax(ptr noundef %0) #0 {
  %2 = alloca ptr, align 8
  store ptr %0, ptr %2, align 8
  %3 = load ptr, ptr %2, align 8
  %4 = getelementptr inbounds %struct.Wlc_Ntk_t_, ptr %3, i32 0, i32 19
  %5 = load i32, ptr %4, align 8
  ret i32 %5
}

; Function Attrs: nounwind uwtable
define void @Wlc_NtkPrintNodes(ptr noundef %0, i32 noundef %1) #0 {
  %3 = alloca ptr, align 8
  %4 = alloca i32, align 4
  %5 = alloca ptr, align 8
  %6 = alloca i32, align 4
  %7 = alloca i32, align 4
  store ptr %0, ptr %3, align 8
  store i32 %1, ptr %4, align 4
  store i32 0, ptr %7, align 4
  %8 = load i32, ptr %4, align 4
  %9 = sext i32 %8 to i64
  %10 = getelementptr inbounds [61 x ptr], ptr @Wlc_Names, i64 0, i64 %9
  %11 = load ptr, ptr %10, align 8
  %12 = call i32 (ptr, ...) @printf(ptr noundef @.str.41, ptr noundef %11)
  store i32 1, ptr %6, align 4
  br label %13

13:                                               ; preds = %38, %2
  %14 = load i32, ptr %6, align 4
  %15 = load ptr, ptr %3, align 8
  %16 = call i32 @Wlc_NtkObjNumMax(ptr noundef %15)
  %17 = icmp slt i32 %14, %16
  br i1 %17, label %18, label %22

18:                                               ; preds = %13
  %19 = load ptr, ptr %3, align 8
  %20 = load i32, ptr %6, align 4
  %21 = call ptr @Wlc_NtkObj(ptr noundef %19, i32 noundef %20)
  store ptr %21, ptr %5, align 8
  br label %22

22:                                               ; preds = %18, %13
  %23 = phi i1 [ false, %13 ], [ true, %18 ]
  br i1 %23, label %24, label %41

24:                                               ; preds = %22
  %25 = load ptr, ptr %5, align 8
  %26 = load i16, ptr %25, align 8
  %27 = and i16 %26, 63
  %28 = zext i16 %27 to i32
  %29 = load i32, ptr %4, align 4
  %30 = icmp ne i32 %28, %29
  br i1 %30, label %31, label %32

31:                                               ; preds = %24
  br label %38

32:                                               ; preds = %24
  %33 = load i32, ptr %7, align 4
  %34 = add nsw i32 %33, 1
  store i32 %34, ptr %7, align 4
  %35 = call i32 (ptr, ...) @printf(ptr noundef @.str.42, i32 noundef %33)
  %36 = load ptr, ptr %3, align 8
  %37 = load ptr, ptr %5, align 8
  call void @Wlc_NtkPrintNode(ptr noundef %36, ptr noundef %37)
  br label %38

38:                                               ; preds = %32, %31
  %39 = load i32, ptr %6, align 4
  %40 = add nsw i32 %39, 1
  store i32 %40, ptr %6, align 4
  br label %13, !llvm.loop !45

41:                                               ; preds = %22
  ret void
}