; Function Attrs: nounwind uwtable
define void @Wlc_NtkPrintNodes(ptr noundef readonly captures(none) %0, i32 noundef %1) local_unnamed_addr #3 {
  %3 = sext i32 %1 to i64
  %4 = getelementptr inbounds [61 x ptr], ptr @Wlc_Names, i64 0, i64 %3
  %5 = load ptr, ptr %4, align 8
  %6 = tail call i32 (ptr, ...) @printf(ptr noundef nonnull dereferenceable(1) @.str.41, ptr noundef %5)
  %7 = getelementptr i8, ptr %0, i64 648
  %.val1112 = load i32, ptr %7, align 8
  %8 = icmp sgt i32 %.val1112, 1
  br i1 %8, label %.lr.ph, label %.critedge

.lr.ph:                                           ; preds = %2
  %9 = getelementptr i8, ptr %0, i64 640
  br label %10

10:                                               ; preds = %.lr.ph, %18
  %.val1116 = phi i32 [ %.val1112, %.lr.ph ], [ %.val11, %18 ]
  %indvars.iv = phi i64 [ 1, %.lr.ph ], [ %indvars.iv.next, %18 ]
  %.014 = phi i32 [ 0, %.lr.ph ], [ %.1, %18 ]
  %.val = load ptr, ptr %9, align 8
  %11 = getelementptr inbounds nuw %struct.Wlc_Obj_t_, ptr %.val, i64 %indvars.iv
  %12 = load i16, ptr %11, align 8
  %13 = and i16 %12, 63
  %14 = zext nneg i16 %13 to i32
  %.not = icmp eq i32 %1, %14
  br i1 %.not, label %15, label %18

15:                                               ; preds = %10
  %16 = add nsw i32 %.014, 1
  %17 = tail call i32 (ptr, ...) @printf(ptr noundef nonnull dereferenceable(1) @.str.42, i32 noundef %.014)
  tail call void @Wlc_NtkPrintNode(ptr noundef nonnull %0, ptr noundef nonnull %11)
  %.val11.pre = load i32, ptr %7, align 8
  br label %18

18:                                               ; preds = %10, %15
  %.val11 = phi i32 [ %.val1116, %10 ], [ %.val11.pre, %15 ]
  %.1 = phi i32 [ %.014, %10 ], [ %16, %15 ]
  %indvars.iv.next = add nuw nsw i64 %indvars.iv, 1
  %19 = sext i32 %.val11 to i64
  %20 = icmp slt i64 %indvars.iv.next, %19
  br i1 %20, label %10, label %.critedge, !llvm.loop !44

.critedge:                                        ; preds = %18, %2
  ret void
}